; ModuleID = '30/2973.c'
source_filename = "30/2973.c"
target datalayout = "e-m:e-p270:32:32-p271:32:32-p272:64:64-i64:64-f80:128-n8:16:32:64-S128"
target triple = "x86_64-pc-linux-gnu"

@.str = private unnamed_addr constant [3 x i8] c"%d\00", align 1

; Function Attrs: noinline nounwind uwtable
define dso_local i32 @main() #0 {
  %1 = alloca i32, align 4
  %2 = alloca i32, align 4
  %3 = alloca i32, align 4
  %4 = alloca i32, align 4
  %5 = alloca i32, align 4
  store i32 0, i32* %1, align 4
  store i32 0, i32* %4, align 4
  %6 = call i32 (i8*, ...) @__isoc99_scanf(i8* getelementptr inbounds ([3 x i8], [3 x i8]* @.str, i64 0, i64 0), i32* %2)
  store i32 0, i32* %5, align 4
  br label %7

7:                                                ; preds = %74, %0
  %8 = load i32, i32* %5, align 4
  %9 = load i32, i32* %2, align 4
  %10 = icmp sle i32 %8, %9
  br i1 %10, label %11, label %77

11:                                               ; preds = %7
  %12 = load i32, i32* %5, align 4
  %13 = srem i32 %12, 7
  store i32 %13, i32* %3, align 4
  %14 = load i32, i32* %5, align 4
  %15 = icmp ne i32 %14, 7
  br i1 %15, label %16, label %73

16:                                               ; preds = %11
  %17 = load i32, i32* %5, align 4
  %18 = icmp ne i32 %17, 17
  br i1 %18, label %19, label %73

19:                                               ; preds = %16
  %20 = load i32, i32* %5, align 4
  %21 = icmp ne i32 %20, 27
  br i1 %21, label %22, label %73

22:                                               ; preds = %19
  %23 = load i32, i32* %5, align 4
  %24 = icmp ne i32 %23, 37
  br i1 %24, label %25, label %73

25:                                               ; preds = %22
  %26 = load i32, i32* %5, align 4
  %27 = icmp ne i32 %26, 47
  br i1 %27, label %28, label %73

28:                                               ; preds = %25
  %29 = load i32, i32* %5, align 4
  %30 = icmp ne i32 %29, 57
  br i1 %30, label %31, label %73

31:                                               ; preds = %28
  %32 = load i32, i32* %5, align 4
  %33 = icmp ne i32 %32, 67
  br i1 %33, label %34, label %73

34:                                               ; preds = %31
  %35 = load i32, i32* %5, align 4
  %36 = icmp ne i32 %35, 71
  br i1 %36, label %37, label %73

37:                                               ; preds = %34
  %38 = load i32, i32* %5, align 4
  %39 = icmp ne i32 %38, 72
  br i1 %39, label %40, label %73

40:                                               ; preds = %37
  %41 = load i32, i32* %5, align 4
  %42 = icmp ne i32 %41, 73
  br i1 %42, label %43, label %73

43:                                               ; preds = %40
  %44 = load i32, i32* %5, align 4
  %45 = icmp ne i32 %44, 74
  br i1 %45, label %46, label %73

46:                                               ; preds = %43
  %47 = load i32, i32* %5, align 4
  %48 = icmp ne i32 %47, 75
  br i1 %48, label %49, label %73

49:                                               ; preds = %46
  %50 = load i32, i32* %5, align 4
  %51 = icmp ne i32 %50, 76
  br i1 %51, label %52, label %73

52:                                               ; preds = %49
  %53 = load i32, i32* %5, align 4
  %54 = icmp ne i32 %53, 78
  br i1 %54, label %55, label %73

55:                                               ; preds = %52
  %56 = load i32, i32* %5, align 4
  %57 = icmp ne i32 %56, 79
  br i1 %57, label %58, label %73

58:                                               ; preds = %55
  %59 = load i32, i32* %5, align 4
  %60 = icmp ne i32 %59, 87
  br i1 %60, label %61, label %73

61:                                               ; preds = %58
  %62 = load i32, i32* %5, align 4
  %63 = icmp ne i32 %62, 97
  br i1 %63, label %64, label %73

64:                                               ; preds = %61
  %65 = load i32, i32* %3, align 4
  %66 = icmp ne i32 %65, 0
  br i1 %66, label %67, label %73

67:                                               ; preds = %64
  %68 = load i32, i32* %5, align 4
  %69 = load i32, i32* %5, align 4
  %70 = mul nsw i32 %68, %69
  %71 = load i32, i32* %4, align 4
  %72 = add nsw i32 %71, %70
  store i32 %72, i32* %4, align 4
  br label %73

73:                                               ; preds = %67, %64, %61, %58, %55, %52, %49, %46, %43, %40, %37, %34, %31, %28, %25, %22, %19, %16, %11
  br label %74

74:                                               ; preds = %73
  %75 = load i32, i32* %5, align 4
  %76 = add nsw i32 %75, 1
  store i32 %76, i32* %5, align 4
  br label %7

77:                                               ; preds = %7
  %78 = load i32, i32* %4, align 4
  %79 = call i32 (i8*, ...) @printf(i8* getelementptr inbounds ([3 x i8], [3 x i8]* @.str, i64 0, i64 0), i32 %78)
  ret i32 0
}

declare dso_local i32 @__isoc99_scanf(i8*, ...) #1

declare dso_local i32 @printf(i8*, ...) #1


!llvm.module.flags = !{!0}
!llvm.ident = !{!1}

!0 = !{i32 1, !"wchar_size", i32 4}
!1 = !{!"clang version 10.0.0-4ubuntu1 "}
